target datalayout = "e-m:e-p270:32:32-p271:32:32-p272:64:64-i64:64-i128:128-f80:128-n8:16:32:64-S128"
target triple = "x86_64-pc-linux-gnu"

%"class.gmx::OptionsAssigner::Impl" = type <{ ptr, i8, [7 x i8], %"class.std::vector", ptr, i32, i8, [3 x i8] }>
%"class.std::vector" = type { %"struct.std::_Vector_base" }
%"struct.std::_Vector_base" = type { %"struct.std::_Vector_base<gmx::internal::OptionSectionImpl *, std::allocator<gmx::internal::OptionSectionImpl *>>::_Vector_impl" }
%"struct.std::_Vector_base<gmx::internal::OptionSectionImpl *, std::allocator<gmx::internal::OptionSectionImpl *>>::_Vector_impl" = type { %"struct.std::_Vector_base<gmx::internal::OptionSectionImpl *, std::allocator<gmx::internal::OptionSectionImpl *>>::_Vector_impl_data" }
%"struct.std::_Vector_base<gmx::internal::OptionSectionImpl *, std::allocator<gmx::internal::OptionSectionImpl *>>::_Vector_impl_data" = type { ptr, ptr, ptr }
%class.anon = type { i8 }
%"class.__gnu_cxx::__normal_iterator" = type { ptr }

@.str.1 = private unnamed_addr constant [133 x i8] c"generated/home/dtcxzyw/WorkSpace/Projects/compilers/llvm-opt-benchmark/bench/gromacs/gromacs/src/gromacs/options/optionsassigner.cpp\00", align 1
@.str.4 = private unnamed_addr constant [26 x i8] c"currentOption_ == nullptr\00", align 1
@.str.5 = private unnamed_addr constant [54 x i8] c"Cannot search for another option while processing one\00", align 1
@"__PRETTY_FUNCTION__._ZZN3gmx15OptionsAssigner4Impl10findOptionEPKcENK3$_0clEv" = private unnamed_addr constant [97 x i8] c"auto gmx::OptionsAssigner::Impl::findOption(const char *)::(anonymous class)::operator()() const\00", align 1

; Function Attrs: mustprogress nounwind uwtable
define linkonce_odr void @_ZN9__gnu_cxx17__normal_iteratorIPKPN3gmx8internal17OptionSectionImplESt6vectorIS4_SaIS4_EEEC2ERKS6_(ptr noundef nonnull align 8 dereferenceable(8) %0, ptr noundef nonnull align 8 dereferenceable(8) %1) unnamed_addr #1 comdat align 2 {
  %3 = alloca ptr, align 8
  %4 = alloca ptr, align 8
  store ptr %0, ptr %3, align 8, !tbaa !87
  store ptr %1, ptr %4, align 8, !tbaa !93
  %5 = load ptr, ptr %3, align 8
  %6 = getelementptr inbounds nuw %"class.__gnu_cxx::__normal_iterator", ptr %5, i32 0, i32 0
  %7 = load ptr, ptr %4, align 8, !tbaa !93
  %8 = load ptr, ptr %7, align 8, !tbaa !29
  store ptr %8, ptr %6, align 8, !tbaa !91
  ret void
}

; Function Attrs: mustprogress nounwind uwtable
define linkonce_odr noundef nonnull align 8 dereferenceable(8) ptr @_ZNK9__gnu_cxx17__normal_iteratorIPKPN3gmx8internal17OptionSectionImplESt6vectorIS4_SaIS4_EEEdeEv(ptr noundef nonnull align 8 dereferenceable(8) %0) #1 comdat align 2 {
  %2 = alloca ptr, align 8
  store ptr %0, ptr %2, align 8, !tbaa !87
  %3 = load ptr, ptr %2, align 8
  %4 = getelementptr inbounds nuw %"class.__gnu_cxx::__normal_iterator", ptr %3, i32 0, i32 0
  %5 = load ptr, ptr %4, align 8, !tbaa !91
  ret ptr %5
}

; Function Attrs: mustprogress nounwind uwtable
define linkonce_odr ptr @_ZNK9__gnu_cxx17__normal_iteratorIPKPN3gmx8internal17OptionSectionImplESt6vectorIS4_SaIS4_EEEmiEl(ptr noundef nonnull align 8 dereferenceable(8) %0, i64 noundef %1) #1 comdat align 2 {
  %3 = alloca %"class.__gnu_cxx::__normal_iterator", align 8
  %4 = alloca ptr, align 8
  %5 = alloca i64, align 8
  %6 = alloca ptr, align 8
  store ptr %0, ptr %4, align 8, !tbaa !87
  store i64 %1, ptr %5, align 8, !tbaa !89
  %7 = load ptr, ptr %4, align 8
  call void @llvm.lifetime.start.p0(i64 8, ptr %6) #17
  %8 = getelementptr inbounds nuw %"class.__gnu_cxx::__normal_iterator", ptr %7, i32 0, i32 0
  %9 = load ptr, ptr %8, align 8, !tbaa !91
  %10 = load i64, ptr %5, align 8, !tbaa !89
  %11 = sub i64 0, %10
  %12 = getelementptr inbounds ptr, ptr %9, i64 %11
  store ptr %12, ptr %6, align 8, !tbaa !29
  call void @_ZN9__gnu_cxx17__normal_iteratorIPKPN3gmx8internal17OptionSectionImplESt6vectorIS4_SaIS4_EEEC2ERKS6_(ptr noundef nonnull align 8 dereferenceable(8) %3, ptr noundef nonnull align 8 dereferenceable(8) %6) #17
  call void @llvm.lifetime.end.p0(i64 8, ptr %6) #17
  %13 = getelementptr inbounds nuw %"class.__gnu_cxx::__normal_iterator", ptr %3, i32 0, i32 0
  %14 = load ptr, ptr %13, align 8
  ret ptr %14
}

; Function Attrs: mustprogress nounwind uwtable
define linkonce_odr ptr @_ZNKSt6vectorIPN3gmx8internal17OptionSectionImplESaIS3_EE3endEv(ptr noundef nonnull align 8 dereferenceable(24) %0) #1 comdat align 2 {
  %2 = alloca %"class.__gnu_cxx::__normal_iterator", align 8
  %3 = alloca ptr, align 8
  store ptr %0, ptr %3, align 8, !tbaa !27
  %4 = load ptr, ptr %3, align 8
  %5 = getelementptr inbounds nuw %"struct.std::_Vector_base", ptr %4, i32 0, i32 0
  %6 = getelementptr inbounds nuw %"struct.std::_Vector_base<gmx::internal::OptionSectionImpl *, std::allocator<gmx::internal::OptionSectionImpl *>>::_Vector_impl_data", ptr %5, i32 0, i32 1
  call void @_ZN9__gnu_cxx17__normal_iteratorIPKPN3gmx8internal17OptionSectionImplESt6vectorIS4_SaIS4_EEEC2ERKS6_(ptr noundef nonnull align 8 dereferenceable(8) %2, ptr noundef nonnull align 8 dereferenceable(8) %6) #17
  %7 = getelementptr inbounds nuw %"class.__gnu_cxx::__normal_iterator", ptr %2, i32 0, i32 0
  %8 = load ptr, ptr %7, align 8
  ret ptr %8
}

; Function Attrs: mustprogress nounwind uwtable
define linkonce_odr noundef nonnull align 8 dereferenceable(8) ptr @_ZNKSt6vectorIPN3gmx8internal17OptionSectionImplESaIS3_EE4backEv(ptr noundef nonnull align 8 dereferenceable(24) %0) #1 comdat align 2 {
  %2 = alloca ptr, align 8
  %3 = alloca %"class.__gnu_cxx::__normal_iterator", align 8
  %4 = alloca %"class.__gnu_cxx::__normal_iterator", align 8
  store ptr %0, ptr %2, align 8, !tbaa !27
  %5 = load ptr, ptr %2, align 8
  call void @llvm.lifetime.start.p0(i64 8, ptr %3) #17
  call void @llvm.lifetime.start.p0(i64 8, ptr %4) #17
  %6 = call ptr @_ZNKSt6vectorIPN3gmx8internal17OptionSectionImplESaIS3_EE3endEv(ptr noundef nonnull align 8 dereferenceable(24) %5) #17
  %7 = getelementptr inbounds nuw %"class.__gnu_cxx::__normal_iterator", ptr %4, i32 0, i32 0
  store ptr %6, ptr %7, align 8
  %8 = call ptr @_ZNK9__gnu_cxx17__normal_iteratorIPKPN3gmx8internal17OptionSectionImplESt6vectorIS4_SaIS4_EEEmiEl(ptr noundef nonnull align 8 dereferenceable(8) %4, i64 noundef 1) #17
  %9 = getelementptr inbounds nuw %"class.__gnu_cxx::__normal_iterator", ptr %3, i32 0, i32 0
  store ptr %8, ptr %9, align 8
  %10 = call noundef nonnull align 8 dereferenceable(8) ptr @_ZNK9__gnu_cxx17__normal_iteratorIPKPN3gmx8internal17OptionSectionImplESt6vectorIS4_SaIS4_EEEdeEv(ptr noundef nonnull align 8 dereferenceable(8) %3) #17
  call void @llvm.lifetime.end.p0(i64 8, ptr %4) #17
  call void @llvm.lifetime.end.p0(i64 8, ptr %3) #17
  ret ptr %10
}

; Function Attrs: mustprogress nounwind uwtable
define linkonce_odr noundef nonnull align 8 dereferenceable(201) ptr @_ZNK3gmx15OptionsAssigner4Impl14currentSectionEv(ptr noundef nonnull align 8 dereferenceable(53) %0) #1 comdat align 2 {
  %2 = alloca ptr, align 8
  store ptr %0, ptr %2, align 8, !tbaa !3
  %3 = load ptr, ptr %2, align 8
  %4 = getelementptr inbounds nuw %"class.gmx::OptionsAssigner::Impl", ptr %3, i32 0, i32 3
  %5 = call noundef nonnull align 8 dereferenceable(8) ptr @_ZNKSt6vectorIPN3gmx8internal17OptionSectionImplESaIS3_EE4backEv(ptr noundef nonnull align 8 dereferenceable(24) %4) #17
  %6 = load ptr, ptr %5, align 8, !tbaa !25
  ret ptr %6
}

; Function Attrs: inlinehint mustprogress uwtable
define internal void @"_ZZN3gmx15OptionsAssigner4Impl10findOptionEPKcENK3$_0clEv"(ptr noundef nonnull align 1 dereferenceable(1) %0) #3 align 2 {
  %2 = alloca ptr, align 8
  store ptr %0, ptr %2, align 8, !tbaa !40
  call void @_ZN3gmx8internal13assertHandlerEPKcS2_S2_S2_i(ptr noundef @.str.4, ptr noundef @.str.5, ptr noundef @"__PRETTY_FUNCTION__._ZZN3gmx15OptionsAssigner4Impl10findOptionEPKcENK3$_0clEv", ptr noundef @.str.1, i32 noundef 129) #19
  unreachable
}

; Function Attrs: mustprogress uwtable
define noundef ptr @_ZN3gmx15OptionsAssigner4Impl10findOptionEPKc(ptr noundef nonnull align 8 dereferenceable(53) %0, ptr noundef %1) #0 align 2 {
  %3 = alloca ptr, align 8
  %4 = alloca ptr, align 8
  %5 = alloca %class.anon, align 1
  %6 = alloca ptr, align 8
  %7 = alloca ptr, align 8
  store ptr %0, ptr %3, align 8, !tbaa !3
  store ptr %1, ptr %4, align 8, !tbaa !34
  %8 = load ptr, ptr %3, align 8
  %9 = getelementptr inbounds nuw %"class.gmx::OptionsAssigner::Impl", ptr %8, i32 0, i32 4
  %10 = load ptr, ptr %9, align 8, !tbaa !21
  %11 = icmp eq ptr %10, null
  call void @llvm.lifetime.start.p0(i64 1, ptr %5) #17
  br i1 %11, label %12, label %13

12:                                               ; preds = %2
  br label %14

13:                                               ; preds = %2
  call void @"_ZZN3gmx15OptionsAssigner4Impl10findOptionEPKcENK3$_0clEv"(ptr noundef nonnull align 1 dereferenceable(1) %5)
  br label %14

14:                                               ; preds = %13, %12
  call void @llvm.lifetime.end.p0(i64 1, ptr %5) #17
  call void @llvm.lifetime.start.p0(i64 8, ptr %6) #17
  %15 = call noundef nonnull align 8 dereferenceable(201) ptr @_ZNK3gmx15OptionsAssigner4Impl14currentSectionEv(ptr noundef nonnull align 8 dereferenceable(53) %8)
  store ptr %15, ptr %6, align 8, !tbaa !25
  call void @llvm.lifetime.start.p0(i64 8, ptr %7) #17
  %16 = load ptr, ptr %6, align 8, !tbaa !25
  %17 = load ptr, ptr %4, align 8, !tbaa !34
  %18 = call noundef ptr @_ZNK3gmx8internal17OptionSectionImpl10findOptionEPKc(ptr noundef nonnull align 8 dereferenceable(201) %16, ptr noundef %17)
  store ptr %18, ptr %7, align 8, !tbaa !36
  %19 = load ptr, ptr %7, align 8, !tbaa !36
  %20 = icmp eq ptr %19, null
  br i1 %20, label %21, label %52

21:                                               ; preds = %14
  %22 = getelementptr inbounds nuw %"class.gmx::OptionsAssigner::Impl", ptr %8, i32 0, i32 1
  %23 = load i8, ptr %22, align 8, !tbaa !10, !range !37, !noundef !38
  %24 = trunc i8 %23 to i1
  br i1 %24, label %25, label %52

25:                                               ; preds = %21
  %26 = load ptr, ptr %4, align 8, !tbaa !34
  %27 = getelementptr inbounds i8, ptr %26, i64 0
  %28 = load i8, ptr %27, align 1, !tbaa !39
  %29 = sext i8 %28 to i32
  %30 = icmp eq i32 %29, 110
  br i1 %30, label %31, label %51

31:                                               ; preds = %25
  %32 = load ptr, ptr %4, align 8, !tbaa !34
  %33 = getelementptr inbounds i8, ptr %32, i64 1
  %34 = load i8, ptr %33, align 1, !tbaa !39
  %35 = sext i8 %34 to i32
  %36 = icmp eq i32 %35, 111
  br i1 %36, label %37, label %51

37:                                               ; preds = %31
  %38 = load ptr, ptr %6, align 8, !tbaa !25
  %39 = load ptr, ptr %4, align 8, !tbaa !34
  %40 = getelementptr inbounds i8, ptr %39, i64 2
  %41 = call noundef ptr @_ZNK3gmx8internal17OptionSectionImpl10findOptionEPKc(ptr noundef nonnull align 8 dereferenceable(201) %38, ptr noundef %40)
  store ptr %41, ptr %7, align 8, !tbaa !36
  %42 = load ptr, ptr %7, align 8, !tbaa !36
  %43 = icmp ne ptr %42, null
  br i1 %43, label %44, label %49

44:                                               ; preds = %37
  %45 = load ptr, ptr %7, align 8, !tbaa !36
  %46 = call noundef zeroext i1 @_ZNK3gmx21AbstractOptionStorage9isBooleanEv(ptr noundef nonnull align 8 dereferenceable(98) %45)
  br i1 %46, label %47, label %49

47:                                               ; preds = %44
  %48 = getelementptr inbounds nuw %"class.gmx::OptionsAssigner::Impl", ptr %8, i32 0, i32 6
  store i8 1, ptr %48, align 4, !tbaa !23
  br label %50

49:                                               ; preds = %44, %37
  store ptr null, ptr %7, align 8, !tbaa !36
  br label %50

50:                                               ; preds = %49, %47
  br label %51

51:                                               ; preds = %50, %31, %25
  br label %52

52:                                               ; preds = %51, %21, %14
  %53 = load ptr, ptr %7, align 8, !tbaa !36
  call void @llvm.lifetime.end.p0(i64 8, ptr %7) #17
  call void @llvm.lifetime.end.p0(i64 8, ptr %6) #17
  ret ptr %53
}