; Function Attrs: mustprogress uwtable
define noundef ptr @_ZN3gmx15OptionsAssigner4Impl10findOptionEPKc(ptr noundef nonnull align 8 captures(none) dereferenceable(53) %0, ptr noundef %1) local_unnamed_addr #0 align 2 {
  %3 = getelementptr inbounds nuw i8, ptr %0, i64 40
  %4 = load ptr, ptr %3, align 8, !tbaa !26
  %5 = icmp eq ptr %4, null
  br i1 %5, label %7, label %6

6:                                                ; preds = %2
  tail call void @_ZN3gmx8internal13assertHandlerEPKcS2_S2_S2_i(ptr noundef nonnull @.str.4, ptr noundef nonnull @.str.5, ptr noundef nonnull @"__PRETTY_FUNCTION__._ZZN3gmx15OptionsAssigner4Impl10findOptionEPKcENK3$_0clEv", ptr noundef nonnull @.str.1, i32 noundef 129) #20
  unreachable

7:                                                ; preds = %2
  %8 = getelementptr inbounds nuw i8, ptr %0, i64 24
  %9 = load ptr, ptr %8, align 8, !tbaa !27
  %10 = getelementptr inbounds i8, ptr %9, i64 -8
  %11 = load ptr, ptr %10, align 8, !tbaa !21
  %12 = tail call noundef ptr @_ZNK3gmx8internal17OptionSectionImpl10findOptionEPKc(ptr noundef nonnull align 8 dereferenceable(201) %11, ptr noundef %1)
  %13 = icmp eq ptr %12, null
  br i1 %13, label %14, label %32

14:                                               ; preds = %7
  %15 = getelementptr inbounds nuw i8, ptr %0, i64 8
  %16 = load i8, ptr %15, align 8, !tbaa !8, !range !28, !noundef !29
  %17 = trunc nuw i8 %16 to i1
  br i1 %17, label %18, label %32

18:                                               ; preds = %14
  %19 = load i8, ptr %1, align 1, !tbaa !30
  %20 = icmp eq i8 %19, 110
  br i1 %20, label %21, label %32

21:                                               ; preds = %18
  %22 = getelementptr inbounds nuw i8, ptr %1, i64 1
  %23 = load i8, ptr %22, align 1, !tbaa !30
  %24 = icmp eq i8 %23, 111
  br i1 %24, label %25, label %32

25:                                               ; preds = %21
  %26 = getelementptr inbounds nuw i8, ptr %1, i64 2
  %27 = tail call noundef ptr @_ZNK3gmx8internal17OptionSectionImpl10findOptionEPKc(ptr noundef nonnull align 8 dereferenceable(201) %11, ptr noundef nonnull %26)
  %.not = icmp eq ptr %27, null
  br i1 %.not, label %32, label %28

28:                                               ; preds = %25
  %29 = tail call noundef zeroext i1 @_ZNK3gmx21AbstractOptionStorage9isBooleanEv(ptr noundef nonnull align 8 dereferenceable(98) %27)
  br i1 %29, label %30, label %32

30:                                               ; preds = %28
  %31 = getelementptr inbounds nuw i8, ptr %0, i64 52
  store i8 1, ptr %31, align 4, !tbaa !31
  br label %32

32:                                               ; preds = %25, %28, %18, %21, %30, %14, %7
  %.0 = phi ptr [ %27, %30 ], [ null, %21 ], [ null, %18 ], [ null, %14 ], [ %12, %7 ], [ null, %28 ], [ null, %25 ]
  ret ptr %.0
}